; Function Attrs: mustprogress uwtable
define noundef zeroext i1 @_ZNK32pxrInternal_v0_24__pxrReserved__7VtValue7CanHashEv(ptr noundef nonnull align 8 dereferenceable(16) %0) local_unnamed_addr #0 align 2 personality ptr @__gxx_personality_v0 {
  %2 = getelementptr inbounds nuw i8, ptr %0, i64 8
  %3 = load ptr, ptr %2, align 8
  %4 = icmp eq ptr %3, null
  br i1 %4, label %18, label %5

5:                                                ; preds = %1
  %6 = ptrtoint ptr %3 to i64
  %7 = and i64 %6, 4
  %.not = icmp eq i64 %7, 0
  %8 = and i64 %6, -8
  %9 = inttoptr i64 %8 to ptr
  br i1 %.not, label %14, label %10

10:                                               ; preds = %5
  %11 = getelementptr inbounds nuw i8, ptr %9, i64 48
  %12 = load ptr, ptr %11, align 8
  %13 = tail call noundef zeroext i1 %12(ptr noundef nonnull align 8 dereferenceable(8) %0)
  br label %18

14:                                               ; preds = %5
  %15 = getelementptr inbounds nuw i8, ptr %9, i64 22
  %16 = load i8, ptr %15, align 2
  %17 = trunc i8 %16 to i1
  br label %18

18:                                               ; preds = %1, %14, %10
  %.0 = phi i1 [ %13, %10 ], [ %17, %14 ], [ true, %1 ]
  ret i1 %.0
}